; Function Attrs: nounwind sspstrong uwtable
define dso_local noundef zeroext i1 @visit_type_AudiodevPaPerDirectionOptions_members(ptr noundef %v, ptr noundef %obj, ptr noundef %errp) local_unnamed_addr #0 {
entry:
  %has_name = alloca i8, align 1
  %has_stream_name = alloca i8, align 1
  %name = getelementptr inbounds nuw i8, ptr %obj, i64 48
  %0 = load ptr, ptr %name, align 8
  %tobool = icmp ne ptr %0, null
  %frombool = zext i1 %tobool to i8
  store i8 %frombool, ptr %has_name, align 1
  %stream_name = getelementptr inbounds nuw i8, ptr %obj, i64 56
  %1 = load ptr, ptr %stream_name, align 8
  %tobool2 = icmp ne ptr %1, null
  %frombool5 = zext i1 %tobool2 to i8
  store i8 %frombool5, ptr %has_stream_name, align 1
  %call = tail call zeroext i1 @visit_type_AudiodevPerDirectionOptions_members(ptr noundef %v, ptr noundef %obj, ptr noundef %errp)
  br i1 %call, label %if.end, label %return

if.end:                                           ; preds = %entry
  %call6 = call zeroext i1 @visit_optional(ptr noundef %v, ptr noundef nonnull @.str.25, ptr noundef nonnull %has_name) #5
  br i1 %call6, label %if.then7, label %if.end12

if.then7:                                         ; preds = %if.end
  %call9 = call zeroext i1 @visit_type_str(ptr noundef %v, ptr noundef nonnull @.str.25, ptr noundef nonnull %name, ptr noundef %errp) #5
  br i1 %call9, label %if.end12, label %return

if.end12:                                         ; preds = %if.then7, %if.end
  %call13 = call zeroext i1 @visit_optional(ptr noundef %v, ptr noundef nonnull @.str.26, ptr noundef nonnull %has_stream_name) #5
  br i1 %call13, label %if.then14, label %if.end19

if.then14:                                        ; preds = %if.end12
  %call16 = call zeroext i1 @visit_type_str(ptr noundef %v, ptr noundef nonnull @.str.26, ptr noundef nonnull %stream_name, ptr noundef %errp) #5
  br i1 %call16, label %if.end19, label %return

if.end19:                                         ; preds = %if.then14, %if.end12
  %has_latency = getelementptr inbounds nuw i8, ptr %obj, i64 64
  %call20 = call zeroext i1 @visit_optional(ptr noundef %v, ptr noundef nonnull @.str.15, ptr noundef nonnull %has_latency) #5
  br i1 %call20, label %if.then21, label %if.end25

if.then21:                                        ; preds = %if.end19
  %latency = getelementptr inbounds nuw i8, ptr %obj, i64 68
  %call22 = call zeroext i1 @visit_type_uint32(ptr noundef %v, ptr noundef nonnull @.str.15, ptr noundef nonnull %latency, ptr noundef %errp) #5
  br i1 %call22, label %if.end25, label %return

if.end25:                                         ; preds = %if.then21, %if.end19
  br label %return

return:                                           ; preds = %if.then21, %if.then14, %if.then7, %entry, %if.end25
  %retval.0 = phi i1 [ true, %if.end25 ], [ false, %entry ], [ false, %if.then7 ], [ false, %if.then14 ], [ false, %if.then21 ]
  ret i1 %retval.0
}